; Function Attrs: nounwind uwtable
define ptr @l_Array_forIn_x27Unsafe_loop___at_Lean_Elab_Term_elabOpen___spec__31___lambda__1(ptr noundef %0, ptr noundef %1, ptr readnone captures(none) %2, ptr noundef %3, ptr readnone captures(none) %4, ptr readnone captures(none) %5, ptr readnone captures(none) %6, ptr readnone captures(none) %7, ptr readnone captures(none) %8, ptr readnone captures(none) %9, ptr noundef %10) local_unnamed_addr #0 {
  %12 = tail call ptr @l_Lean_Syntax_getId(ptr noundef %0) #6
  tail call void @lean_inc_heartbeat() #6
  %13 = tail call noalias ptr @mi_malloc_small(i64 noundef 24) #6
  %14 = icmp eq ptr %13, null
  br i1 %14, label %15, label %lean_alloc_ctor.exit

15:                                               ; preds = %11
  tail call void @lean_internal_panic_out_of_memory() #7
  unreachable

lean_alloc_ctor.exit:                             ; preds = %11
  %16 = getelementptr inbounds nuw i8, ptr %13, i64 4
  store i32 1, ptr %13, align 4, !tbaa !8
  store i32 16908312, ptr %16, align 4
  %17 = getelementptr inbounds nuw i8, ptr %13, i64 8
  store ptr %12, ptr %17, align 8, !tbaa !4
  %18 = getelementptr inbounds nuw i8, ptr %13, i64 16
  store ptr %1, ptr %18, align 8, !tbaa !4
  %19 = tail call ptr @l___private_Lean_Elab_Open_0__Lean_Elab_OpenDecl_addOpenDecl___at_Lean_Elab_Term_elabOpen___spec__24(ptr noundef nonnull %13, ptr noundef %3, ptr poison, ptr poison, ptr poison, ptr poison, ptr poison, ptr poison, ptr noundef %10)
  %.val = load i32, ptr %19, align 4, !tbaa !8
  %20 = icmp eq i32 %.val, 1
  br i1 %20, label %21, label %34

21:                                               ; preds = %lean_alloc_ctor.exit
  %22 = getelementptr inbounds nuw i8, ptr %19, i64 8
  %23 = load ptr, ptr %22, align 8, !tbaa !4
  %24 = ptrtoint ptr %23 to i64
  %25 = and i64 %24, 1
  %.not35 = icmp eq i64 %25, 0
  br i1 %.not35, label %26, label %lean_dec.exit29

26:                                               ; preds = %21
  %27 = load i32, ptr %23, align 4, !tbaa !8
  %28 = icmp sgt i32 %27, 1
  br i1 %28, label %29, label %31, !prof !15

29:                                               ; preds = %26
  %30 = add nsw i32 %27, -1
  store i32 %30, ptr %23, align 4, !tbaa !8
  br label %lean_dec.exit29

31:                                               ; preds = %26
  %.not.i = icmp eq i32 %27, 0
  br i1 %.not.i, label %lean_dec.exit29, label %32

32:                                               ; preds = %31
  tail call void @lean_dec_ref_cold(ptr noundef nonnull %23) #6
  br label %lean_dec.exit29

lean_dec.exit29:                                  ; preds = %32, %31, %29, %21
  %33 = load ptr, ptr @l_Array_forIn_x27Unsafe_loop___at_Lean_Elab_Term_elabOpen___spec__31___lambda__1___closed__1, align 8, !tbaa !4
  store ptr %33, ptr %22, align 8, !tbaa !4
  br label %61

34:                                               ; preds = %lean_alloc_ctor.exit
  %35 = getelementptr inbounds nuw i8, ptr %19, i64 16
  %36 = load ptr, ptr %35, align 8, !tbaa !4
  %37 = ptrtoint ptr %36 to i64
  %38 = and i64 %37, 1
  %.not = icmp eq i64 %38, 0
  br i1 %.not, label %39, label %lean_inc.exit

39:                                               ; preds = %34
  %.val.i = load i32, ptr %36, align 4, !tbaa !8
  %40 = icmp sgt i32 %.val.i, 0
  br i1 %40, label %41, label %43, !prof !15

41:                                               ; preds = %39
  %42 = add nuw i32 %.val.i, 1
  store i32 %42, ptr %36, align 4, !tbaa !8
  br label %lean_inc.exit

43:                                               ; preds = %39
  %.not.i32 = icmp eq i32 %.val.i, 0
  br i1 %.not.i32, label %lean_inc.exit, label %44

44:                                               ; preds = %43
  tail call void @lean_inc_ref_cold(ptr noundef nonnull %36) #6
  br label %lean_inc.exit

lean_inc.exit:                                    ; preds = %44, %43, %41, %34
  %45 = ptrtoint ptr %19 to i64
  %46 = and i64 %45, 1
  %.not34 = icmp eq i64 %46, 0
  br i1 %.not34, label %47, label %lean_dec.exit

47:                                               ; preds = %lean_inc.exit
  %48 = load i32, ptr %19, align 4, !tbaa !8
  %49 = icmp sgt i32 %48, 1
  br i1 %49, label %50, label %52, !prof !15

50:                                               ; preds = %47
  %51 = add nsw i32 %48, -1
  store i32 %51, ptr %19, align 4, !tbaa !8
  br label %lean_dec.exit

52:                                               ; preds = %47
  %.not.i30 = icmp eq i32 %48, 0
  br i1 %.not.i30, label %lean_dec.exit, label %53

53:                                               ; preds = %52
  tail call void @lean_dec_ref_cold(ptr noundef nonnull %19) #6
  br label %lean_dec.exit

lean_dec.exit:                                    ; preds = %53, %52, %50, %lean_inc.exit
  %54 = load ptr, ptr @l_Array_forIn_x27Unsafe_loop___at_Lean_Elab_Term_elabOpen___spec__31___lambda__1___closed__1, align 8, !tbaa !4
  tail call void @lean_inc_heartbeat() #6
  %55 = tail call noalias ptr @mi_malloc_small(i64 noundef 24) #6
  %56 = icmp eq ptr %55, null
  br i1 %56, label %57, label %lean_alloc_ctor.exit33

57:                                               ; preds = %lean_dec.exit
  tail call void @lean_internal_panic_out_of_memory() #7
  unreachable

lean_alloc_ctor.exit33:                           ; preds = %lean_dec.exit
  %58 = getelementptr inbounds nuw i8, ptr %55, i64 4
  store i32 1, ptr %55, align 4, !tbaa !8
  store i32 131096, ptr %58, align 4
  %59 = getelementptr inbounds nuw i8, ptr %55, i64 8
  store ptr %54, ptr %59, align 8, !tbaa !4
  %60 = getelementptr inbounds nuw i8, ptr %55, i64 16
  store ptr %36, ptr %60, align 8, !tbaa !4
  br label %61

61:                                               ; preds = %lean_alloc_ctor.exit33, %lean_dec.exit29
  %.0 = phi ptr [ %19, %lean_dec.exit29 ], [ %55, %lean_alloc_ctor.exit33 ]
  ret ptr %.0
}